; ModuleID = '27/1979.c'
source_filename = "27/1979.c"
target datalayout = "e-m:e-p270:32:32-p271:32:32-p272:64:64-i64:64-f80:128-n8:16:32:64-S128"
target triple = "x86_64-pc-linux-gnu"

@.str = private unnamed_addr constant [3 x i8] c"%d\00", align 1
@.str.1 = private unnamed_addr constant [10 x i8] c"%lf%lf%lf\00", align 1
@.str.2 = private unnamed_addr constant [19 x i8] c"x1=%.5lf;x2=%.5lf\0A\00", align 1
@.str.3 = private unnamed_addr constant [13 x i8] c"x1=x2=%.5lf\0A\00", align 1
@.str.4 = private unnamed_addr constant [37 x i8] c"x1=0.00000+%.5lfi;x2=0.00000-%.5lfi\0A\00", align 1
@.str.5 = private unnamed_addr constant [33 x i8] c"x1=%.5lf+%.5lfi;x2=%.5lf-%.5lfi\0A\00", align 1

; Function Attrs: noinline nounwind uwtable
define dso_local i32 @main() #0 {
  %1 = alloca i32, align 4
  %2 = alloca i32, align 4
  %3 = alloca i32, align 4
  %4 = alloca [100 x double], align 16
  %5 = alloca [100 x double], align 16
  %6 = alloca [100 x double], align 16
  %7 = alloca double, align 8
  %8 = alloca double, align 8
  %9 = alloca double, align 8
  %10 = alloca double, align 8
  store i32 0, i32* %1, align 4
  %11 = call i32 (i8*, ...) @__isoc99_scanf(i8* getelementptr inbounds ([3 x i8], [3 x i8]* @.str, i64 0, i64 0), i32* %2)
  store i32 0, i32* %3, align 4
  br label %12

12:                                               ; preds = %28, %0
  %13 = load i32, i32* %3, align 4
  %14 = load i32, i32* %2, align 4
  %15 = sub nsw i32 %14, 1
  %16 = icmp sle i32 %13, %15
  br i1 %16, label %17, label %31

17:                                               ; preds = %12
  %18 = load i32, i32* %3, align 4
  %19 = sext i32 %18 to i64
  %20 = getelementptr inbounds [100 x double], [100 x double]* %4, i64 0, i64 %19
  %21 = load i32, i32* %3, align 4
  %22 = sext i32 %21 to i64
  %23 = getelementptr inbounds [100 x double], [100 x double]* %5, i64 0, i64 %22
  %24 = load i32, i32* %3, align 4
  %25 = sext i32 %24 to i64
  %26 = getelementptr inbounds [100 x double], [100 x double]* %6, i64 0, i64 %25
  %27 = call i32 (i8*, ...) @__isoc99_scanf(i8* getelementptr inbounds ([10 x i8], [10 x i8]* @.str.1, i64 0, i64 0), double* %20, double* %23, double* %26)
  br label %28

28:                                               ; preds = %17
  %29 = load i32, i32* %3, align 4
  %30 = add nsw i32 %29, 1
  store i32 %30, i32* %3, align 4
  br label %12

31:                                               ; preds = %12
  store i32 0, i32* %3, align 4
  br label %32

32:                                               ; preds = %240, %31
  %33 = load i32, i32* %3, align 4
  %34 = load i32, i32* %2, align 4
  %35 = sub nsw i32 %34, 1
  %36 = icmp sle i32 %33, %35
  br i1 %36, label %37, label %243

37:                                               ; preds = %32
  %38 = load i32, i32* %3, align 4
  %39 = sext i32 %38 to i64
  %40 = getelementptr inbounds [100 x double], [100 x double]* %5, i64 0, i64 %39
  %41 = load double, double* %40, align 8
  %42 = load i32, i32* %3, align 4
  %43 = sext i32 %42 to i64
  %44 = getelementptr inbounds [100 x double], [100 x double]* %5, i64 0, i64 %43
  %45 = load double, double* %44, align 8
  %46 = fmul double %41, %45
  %47 = load i32, i32* %3, align 4
  %48 = sext i32 %47 to i64
  %49 = getelementptr inbounds [100 x double], [100 x double]* %4, i64 0, i64 %48
  %50 = load double, double* %49, align 8
  %51 = fmul double 4.000000e+00, %50
  %52 = load i32, i32* %3, align 4
  %53 = sext i32 %52 to i64
  %54 = getelementptr inbounds [100 x double], [100 x double]* %6, i64 0, i64 %53
  %55 = load double, double* %54, align 8
  %56 = fmul double %51, %55
  %57 = fsub double %46, %56
  %58 = fcmp ogt double %57, 0.000000e+00
  br i1 %58, label %59, label %129

59:                                               ; preds = %37
  %60 = load i32, i32* %3, align 4
  %61 = sext i32 %60 to i64
  %62 = getelementptr inbounds [100 x double], [100 x double]* %5, i64 0, i64 %61
  %63 = load double, double* %62, align 8
  %64 = fneg double %63
  %65 = load i32, i32* %3, align 4
  %66 = sext i32 %65 to i64
  %67 = getelementptr inbounds [100 x double], [100 x double]* %5, i64 0, i64 %66
  %68 = load double, double* %67, align 8
  %69 = load i32, i32* %3, align 4
  %70 = sext i32 %69 to i64
  %71 = getelementptr inbounds [100 x double], [100 x double]* %5, i64 0, i64 %70
  %72 = load double, double* %71, align 8
  %73 = fmul double %68, %72
  %74 = load i32, i32* %3, align 4
  %75 = sext i32 %74 to i64
  %76 = getelementptr inbounds [100 x double], [100 x double]* %4, i64 0, i64 %75
  %77 = load double, double* %76, align 8
  %78 = fmul double 4.000000e+00, %77
  %79 = load i32, i32* %3, align 4
  %80 = sext i32 %79 to i64
  %81 = getelementptr inbounds [100 x double], [100 x double]* %6, i64 0, i64 %80
  %82 = load double, double* %81, align 8
  %83 = fmul double %78, %82
  %84 = fsub double %73, %83
  %85 = call double @sqrt(double %84) #3
  %86 = fadd double %64, %85
  %87 = load i32, i32* %3, align 4
  %88 = sext i32 %87 to i64
  %89 = getelementptr inbounds [100 x double], [100 x double]* %4, i64 0, i64 %88
  %90 = load double, double* %89, align 8
  %91 = fmul double 2.000000e+00, %90
  %92 = fdiv double %86, %91
  store double %92, double* %7, align 8
  %93 = load i32, i32* %3, align 4
  %94 = sext i32 %93 to i64
  %95 = getelementptr inbounds [100 x double], [100 x double]* %5, i64 0, i64 %94
  %96 = load double, double* %95, align 8
  %97 = fneg double %96
  %98 = load i32, i32* %3, align 4
  %99 = sext i32 %98 to i64
  %100 = getelementptr inbounds [100 x double], [100 x double]* %5, i64 0, i64 %99
  %101 = load double, double* %100, align 8
  %102 = load i32, i32* %3, align 4
  %103 = sext i32 %102 to i64
  %104 = getelementptr inbounds [100 x double], [100 x double]* %5, i64 0, i64 %103
  %105 = load double, double* %104, align 8
  %106 = fmul double %101, %105
  %107 = load i32, i32* %3, align 4
  %108 = sext i32 %107 to i64
  %109 = getelementptr inbounds [100 x double], [100 x double]* %4, i64 0, i64 %108
  %110 = load double, double* %109, align 8
  %111 = fmul double 4.000000e+00, %110
  %112 = load i32, i32* %3, align 4
  %113 = sext i32 %112 to i64
  %114 = getelementptr inbounds [100 x double], [100 x double]* %6, i64 0, i64 %113
  %115 = load double, double* %114, align 8
  %116 = fmul double %111, %115
  %117 = fsub double %106, %116
  %118 = call double @sqrt(double %117) #3
  %119 = fsub double %97, %118
  %120 = load i32, i32* %3, align 4
  %121 = sext i32 %120 to i64
  %122 = getelementptr inbounds [100 x double], [100 x double]* %4, i64 0, i64 %121
  %123 = load double, double* %122, align 8
  %124 = fmul double 2.000000e+00, %123
  %125 = fdiv double %119, %124
  store double %125, double* %8, align 8
  %126 = load double, double* %7, align 8
  %127 = load double, double* %8, align 8
  %128 = call i32 (i8*, ...) @printf(i8* getelementptr inbounds ([19 x i8], [19 x i8]* @.str.2, i64 0, i64 0), double %126, double %127)
  br label %129

129:                                              ; preds = %59, %37
  %130 = load i32, i32* %3, align 4
  %131 = sext i32 %130 to i64
  %132 = getelementptr inbounds [100 x double], [100 x double]* %5, i64 0, i64 %131
  %133 = load double, double* %132, align 8
  %134 = load i32, i32* %3, align 4
  %135 = sext i32 %134 to i64
  %136 = getelementptr inbounds [100 x double], [100 x double]* %5, i64 0, i64 %135
  %137 = load double, double* %136, align 8
  %138 = fmul double %133, %137
  %139 = load i32, i32* %3, align 4
  %140 = sext i32 %139 to i64
  %141 = getelementptr inbounds [100 x double], [100 x double]* %4, i64 0, i64 %140
  %142 = load double, double* %141, align 8
  %143 = fmul double 4.000000e+00, %142
  %144 = load i32, i32* %3, align 4
  %145 = sext i32 %144 to i64
  %146 = getelementptr inbounds [100 x double], [100 x double]* %6, i64 0, i64 %145
  %147 = load double, double* %146, align 8
  %148 = fmul double %143, %147
  %149 = fsub double %138, %148
  %150 = fcmp oeq double %149, 0.000000e+00
  br i1 %150, label %151, label %165

151:                                              ; preds = %129
  %152 = load i32, i32* %3, align 4
  %153 = sext i32 %152 to i64
  %154 = getelementptr inbounds [100 x double], [100 x double]* %5, i64 0, i64 %153
  %155 = load double, double* %154, align 8
  %156 = fneg double %155
  %157 = load i32, i32* %3, align 4
  %158 = sext i32 %157 to i64
  %159 = getelementptr inbounds [100 x double], [100 x double]* %4, i64 0, i64 %158
  %160 = load double, double* %159, align 8
  %161 = fmul double 2.000000e+00, %160
  %162 = fdiv double %156, %161
  store double %162, double* %7, align 8
  %163 = load double, double* %7, align 8
  %164 = call i32 (i8*, ...) @printf(i8* getelementptr inbounds ([13 x i8], [13 x i8]* @.str.3, i64 0, i64 0), double %163)
  br label %165

165:                                              ; preds = %151, %129
  %166 = load i32, i32* %3, align 4
  %167 = sext i32 %166 to i64
  %168 = getelementptr inbounds [100 x double], [100 x double]* %5, i64 0, i64 %167
  %169 = load double, double* %168, align 8
  %170 = load i32, i32* %3, align 4
  %171 = sext i32 %170 to i64
  %172 = getelementptr inbounds [100 x double], [100 x double]* %5, i64 0, i64 %171
  %173 = load double, double* %172, align 8
  %174 = fmul double %169, %173
  %175 = load i32, i32* %3, align 4
  %176 = sext i32 %175 to i64
  %177 = getelementptr inbounds [100 x double], [100 x double]* %4, i64 0, i64 %176
  %178 = load double, double* %177, align 8
  %179 = fmul double 4.000000e+00, %178
  %180 = load i32, i32* %3, align 4
  %181 = sext i32 %180 to i64
  %182 = getelementptr inbounds [100 x double], [100 x double]* %6, i64 0, i64 %181
  %183 = load double, double* %182, align 8
  %184 = fmul double %179, %183
  %185 = fsub double %174, %184
  %186 = fcmp olt double %185, 0.000000e+00
  br i1 %186, label %187, label %239

187:                                              ; preds = %165
  %188 = load i32, i32* %3, align 4
  %189 = sext i32 %188 to i64
  %190 = getelementptr inbounds [100 x double], [100 x double]* %5, i64 0, i64 %189
  %191 = load double, double* %190, align 8
  %192 = fneg double %191
  %193 = load i32, i32* %3, align 4
  %194 = sext i32 %193 to i64
  %195 = getelementptr inbounds [100 x double], [100 x double]* %4, i64 0, i64 %194
  %196 = load double, double* %195, align 8
  %197 = fmul double 2.000000e+00, %196
  %198 = fdiv double %192, %197
  store double %198, double* %9, align 8
  %199 = load i32, i32* %3, align 4
  %200 = sext i32 %199 to i64
  %201 = getelementptr inbounds [100 x double], [100 x double]* %4, i64 0, i64 %200
  %202 = load double, double* %201, align 8
  %203 = fmul double 4.000000e+00, %202
  %204 = load i32, i32* %3, align 4
  %205 = sext i32 %204 to i64
  %206 = getelementptr inbounds [100 x double], [100 x double]* %6, i64 0, i64 %205
  %207 = load double, double* %206, align 8
  %208 = fmul double %203, %207
  %209 = load i32, i32* %3, align 4
  %210 = sext i32 %209 to i64
  %211 = getelementptr inbounds [100 x double], [100 x double]* %5, i64 0, i64 %210
  %212 = load double, double* %211, align 8
  %213 = load i32, i32* %3, align 4
  %214 = sext i32 %213 to i64
  %215 = getelementptr inbounds [100 x double], [100 x double]* %5, i64 0, i64 %214
  %216 = load double, double* %215, align 8
  %217 = fmul double %212, %216
  %218 = fsub double %208, %217
  %219 = call double @sqrt(double %218) #3
  %220 = load i32, i32* %3, align 4
  %221 = sext i32 %220 to i64
  %222 = getelementptr inbounds [100 x double], [100 x double]* %4, i64 0, i64 %221
  %223 = load double, double* %222, align 8
  %224 = fmul double 2.000000e+00, %223
  %225 = fdiv double %219, %224
  store double %225, double* %10, align 8
  %226 = load double, double* %9, align 8
  %227 = fcmp oeq double %226, 0.000000e+00
  br i1 %227, label %228, label %232

228:                                              ; preds = %187
  %229 = load double, double* %10, align 8
  %230 = load double, double* %10, align 8
  %231 = call i32 (i8*, ...) @printf(i8* getelementptr inbounds ([37 x i8], [37 x i8]* @.str.4, i64 0, i64 0), double %229, double %230)
  br label %238

232:                                              ; preds = %187
  %233 = load double, double* %9, align 8
  %234 = load double, double* %10, align 8
  %235 = load double, double* %9, align 8
  %236 = load double, double* %10, align 8
  %237 = call i32 (i8*, ...) @printf(i8* getelementptr inbounds ([33 x i8], [33 x i8]* @.str.5, i64 0, i64 0), double %233, double %234, double %235, double %236)
  br label %238

238:                                              ; preds = %232, %228
  br label %239

239:                                              ; preds = %238, %165
  br label %240

240:                                              ; preds = %239
  %241 = load i32, i32* %3, align 4
  %242 = add nsw i32 %241, 1
  store i32 %242, i32* %3, align 4
  br label %32

243:                                              ; preds = %32
  ret i32 0
}

declare dso_local i32 @__isoc99_scanf(i8*, ...) #1

; Function Attrs: nounwind
declare dso_local double @sqrt(double) #2

declare dso_local i32 @printf(i8*, ...) #1


!llvm.module.flags = !{!0}
!llvm.ident = !{!1}

!0 = !{i32 1, !"wchar_size", i32 4}
!1 = !{!"clang version 10.0.0-4ubuntu1 "}
